target datalayout = "e-m:e-p270:32:32-p271:32:32-p272:64:64-i64:64-i128:128-f80:128-n8:16:32:64-S128"
target triple = "x86_64-pc-linux-gnu"

%struct.lua_State = type { ptr, i8, i8, i8, i8, i16, %union.StkIdRel, ptr, ptr, %union.StkIdRel, %union.StkIdRel, ptr, %union.StkIdRel, ptr, ptr, ptr, %struct.CallInfo, ptr, i64, i32, i32, i32, i32, i32, %struct.anon.2 }
%union.StkIdRel = type { ptr }
%struct.CallInfo = type { %union.StkIdRel, %union.StkIdRel, ptr, ptr, %union.anon, %union.anon.1, i32 }
%union.anon = type { %struct.anon.0 }
%struct.anon.0 = type { ptr, i64, i64 }
%union.anon.1 = type { i32 }
%struct.anon.2 = type { i32, i32 }

@.str = private unnamed_addr constant [17 x i8] c"C stack overflow\00", align 1

; Function Attrs: nounwind uwtable
define hidden void @luaE_checkcstack(ptr noundef %0) #0 {
  %2 = alloca ptr, align 8
  store ptr %0, ptr %2, align 8, !tbaa !22
  %3 = load ptr, ptr %2, align 8, !tbaa !22
  %4 = getelementptr inbounds nuw %struct.lua_State, ptr %3, i32 0, i32 19
  %5 = load i32, ptr %4, align 8, !tbaa !36
  %6 = and i32 %5, 65535
  %7 = icmp eq i32 %6, 200
  br i1 %7, label %8, label %10

8:                                                ; preds = %1
  %9 = load ptr, ptr %2, align 8, !tbaa !22
  call void (ptr, ptr, ...) @luaG_runerror(ptr noundef %9, ptr noundef @.str) #7
  unreachable

10:                                               ; preds = %1
  %11 = load ptr, ptr %2, align 8, !tbaa !22
  %12 = getelementptr inbounds nuw %struct.lua_State, ptr %11, i32 0, i32 19
  %13 = load i32, ptr %12, align 8, !tbaa !36
  %14 = and i32 %13, 65535
  %15 = icmp uge i32 %14, 220
  br i1 %15, label %16, label %18

16:                                               ; preds = %10
  %17 = load ptr, ptr %2, align 8, !tbaa !22
  call void @luaD_throw(ptr noundef %17, i32 noundef 5) #7
  unreachable

18:                                               ; preds = %10
  br label %19

19:                                               ; preds = %18
  ret void
}