; Function Attrs: nounwind uwtable
define hidden void @luaE_checkcstack(ptr noundef %0) local_unnamed_addr #2 {
  %2 = getelementptr inbounds nuw i8, ptr %0, i64 176
  %3 = load i32, ptr %2, align 8, !tbaa !32
  %4 = and i32 %3, 65535
  %5 = icmp eq i32 %4, 200
  br i1 %5, label %6, label %7

6:                                                ; preds = %1
  tail call void (ptr, ptr, ...) @luaG_runerror(ptr noundef nonnull %0, ptr noundef nonnull @.str) #9
  unreachable

7:                                                ; preds = %1
  %8 = icmp samesign ugt i32 %4, 219
  br i1 %8, label %9, label %10

9:                                                ; preds = %7
  tail call void @luaD_throw(ptr noundef nonnull %0, i32 noundef 5) #9
  unreachable

10:                                               ; preds = %7
  ret void
}